target datalayout = "e-m:e-p270:32:32-p271:32:32-p272:64:64-i64:64-i128:128-f80:128-n8:16:32:64-S128"
target triple = "x86_64-pc-linux-gnu"

%struct.Agobj_s = type { %struct.Agtag_s, ptr }
%struct.Agtag_s = type { i32, i64 }
%struct.Agraphinfo_t = type { %struct.Agrec_s, ptr, ptr, %struct.boxf, [4 x %struct.pointf_s], i8, i8, i8, i8, i32, double, double, i16, ptr, ptr, ptr, ptr, i32, ptr, ptr, ptr, ptr, i16, i16, i32, ptr, ptr, ptr, ptr, ptr, i32, ptr, ptr, %struct.nlist_t, ptr, ptr, i32, i32, i8, i8, i32, i32, i32, ptr, ptr, ptr, ptr, i8, i8, i8, i8, i8 }
%struct.Agrec_s = type { ptr, ptr }
%struct.boxf = type { %struct.pointf_s, %struct.pointf_s }
%struct.pointf_s = type { double, double }
%struct.nlist_t = type { ptr, i64 }
%struct.Agnodeinfo_t = type { %struct.Agrec_s, ptr, ptr, %struct.pointf_s, double, double, %struct.boxf, double, double, double, double, double, ptr, ptr, ptr, i8, i8, i8, i8, i32, i32, i32, ptr, double, i8, i8, ptr, ptr, i8, i64, i8, i8, i8, ptr, ptr, %struct.elist, %struct.elist, %struct.elist, %struct.elist, %struct.elist, ptr, i32, ptr, i32, i32, double, %struct.elist, %struct.elist, %struct.elist, %struct.elist, ptr, i32, i32, i32, [1 x double] }
%struct.elist = type { ptr, i64 }
%struct.Agedge_s = type { %struct.Agobj_s, %struct.dtlink_s_, %struct.dtlink_s_, ptr }
%struct.dtlink_s_ = type { ptr, %union.anon }
%union.anon = type { ptr }

; Function Attrs: nounwind uwtable
define internal void @node_induce(ptr noundef %0, ptr noundef %1) #0 {
  %3 = alloca ptr, align 8
  %4 = alloca ptr, align 8
  %5 = alloca ptr, align 8
  %6 = alloca ptr, align 8
  %7 = alloca ptr, align 8
  %8 = alloca i32, align 4
  store ptr %0, ptr %3, align 8, !tbaa !3
  store ptr %1, ptr %4, align 8, !tbaa !3
  call void @llvm.lifetime.start.p0(i64 8, ptr %5) #13
  call void @llvm.lifetime.start.p0(i64 8, ptr %6) #13
  call void @llvm.lifetime.start.p0(i64 8, ptr %7) #13
  call void @llvm.lifetime.start.p0(i64 4, ptr %8) #13
  %9 = load ptr, ptr %4, align 8, !tbaa !3
  %10 = call ptr @agfstnode(ptr noundef %9)
  store ptr %10, ptr %5, align 8, !tbaa !8
  br label %11

11:                                               ; preds = %72, %2
  %12 = load ptr, ptr %5, align 8, !tbaa !8
  %13 = icmp ne ptr %12, null
  br i1 %13, label %14, label %74

14:                                               ; preds = %11
  %15 = load ptr, ptr %4, align 8, !tbaa !3
  %16 = load ptr, ptr %5, align 8, !tbaa !8
  %17 = call ptr @agnxtnode(ptr noundef %15, ptr noundef %16)
  store ptr %17, ptr %6, align 8, !tbaa !8
  %18 = load ptr, ptr %5, align 8, !tbaa !8
  %19 = getelementptr inbounds nuw %struct.Agobj_s, ptr %18, i32 0, i32 1
  %20 = load ptr, ptr %19, align 8, !tbaa !10
  %21 = getelementptr inbounds nuw %struct.Agnodeinfo_t, ptr %20, i32 0, i32 31
  %22 = load i8, ptr %21, align 1, !tbaa !76
  %23 = icmp ne i8 %22, 0
  br i1 %23, label %24, label %28

24:                                               ; preds = %14
  %25 = load ptr, ptr %4, align 8, !tbaa !3
  %26 = load ptr, ptr %5, align 8, !tbaa !8
  %27 = call i32 @agdelete(ptr noundef %25, ptr noundef %26)
  br label %72

28:                                               ; preds = %14
  store i32 1, ptr %8, align 4, !tbaa !45
  br label %29

29:                                               ; preds = %52, %28
  %30 = load i32, ptr %8, align 4, !tbaa !45
  %31 = load ptr, ptr %3, align 8, !tbaa !3
  %32 = getelementptr inbounds nuw %struct.Agobj_s, ptr %31, i32 0, i32 1
  %33 = load ptr, ptr %32, align 8, !tbaa !10
  %34 = getelementptr inbounds nuw %struct.Agraphinfo_t, ptr %33, i32 0, i32 24
  %35 = load i32, ptr %34, align 4, !tbaa !51
  %36 = icmp slt i32 %30, %35
  br i1 %36, label %37, label %55

37:                                               ; preds = %29
  %38 = load ptr, ptr %3, align 8, !tbaa !3
  %39 = getelementptr inbounds nuw %struct.Agobj_s, ptr %38, i32 0, i32 1
  %40 = load ptr, ptr %39, align 8, !tbaa !10
  %41 = getelementptr inbounds nuw %struct.Agraphinfo_t, ptr %40, i32 0, i32 25
  %42 = load ptr, ptr %41, align 8, !tbaa !86
  %43 = load i32, ptr %8, align 4, !tbaa !45
  %44 = sext i32 %43 to i64
  %45 = getelementptr inbounds ptr, ptr %42, i64 %44
  %46 = load ptr, ptr %45, align 8, !tbaa !3
  %47 = load ptr, ptr %5, align 8, !tbaa !8
  %48 = call i32 @agcontains(ptr noundef %46, ptr noundef %47)
  %49 = icmp ne i32 %48, 0
  br i1 %49, label %50, label %51

50:                                               ; preds = %37
  br label %55

51:                                               ; preds = %37
  br label %52

52:                                               ; preds = %51
  %53 = load i32, ptr %8, align 4, !tbaa !45
  %54 = add nsw i32 %53, 1
  store i32 %54, ptr %8, align 4, !tbaa !45
  br label %29, !llvm.loop !105

55:                                               ; preds = %50, %29
  %56 = load i32, ptr %8, align 4, !tbaa !45
  %57 = load ptr, ptr %3, align 8, !tbaa !3
  %58 = getelementptr inbounds nuw %struct.Agobj_s, ptr %57, i32 0, i32 1
  %59 = load ptr, ptr %58, align 8, !tbaa !10
  %60 = getelementptr inbounds nuw %struct.Agraphinfo_t, ptr %59, i32 0, i32 24
  %61 = load i32, ptr %60, align 4, !tbaa !51
  %62 = icmp slt i32 %56, %61
  br i1 %62, label %63, label %67

63:                                               ; preds = %55
  %64 = load ptr, ptr %4, align 8, !tbaa !3
  %65 = load ptr, ptr %5, align 8, !tbaa !8
  %66 = call i32 @agdelete(ptr noundef %64, ptr noundef %65)
  br label %67

67:                                               ; preds = %63, %55
  %68 = load ptr, ptr %5, align 8, !tbaa !8
  %69 = getelementptr inbounds nuw %struct.Agobj_s, ptr %68, i32 0, i32 1
  %70 = load ptr, ptr %69, align 8, !tbaa !10
  %71 = getelementptr inbounds nuw %struct.Agnodeinfo_t, ptr %70, i32 0, i32 40
  store ptr null, ptr %71, align 8, !tbaa !106
  br label %72

72:                                               ; preds = %67, %24
  %73 = load ptr, ptr %6, align 8, !tbaa !8
  store ptr %73, ptr %5, align 8, !tbaa !8
  br label %11, !llvm.loop !107

74:                                               ; preds = %11
  %75 = load ptr, ptr %4, align 8, !tbaa !3
  %76 = call ptr @agfstnode(ptr noundef %75)
  store ptr %76, ptr %5, align 8, !tbaa !8
  br label %77

77:                                               ; preds = %117, %74
  %78 = load ptr, ptr %5, align 8, !tbaa !8
  %79 = icmp ne ptr %78, null
  br i1 %79, label %80, label %121

80:                                               ; preds = %77
  %81 = load ptr, ptr %4, align 8, !tbaa !3
  %82 = call ptr @dot_root(ptr noundef %81)
  %83 = load ptr, ptr %5, align 8, !tbaa !8
  %84 = call ptr @agfstout(ptr noundef %82, ptr noundef %83)
  store ptr %84, ptr %7, align 8, !tbaa !60
  br label %85

85:                                               ; preds = %111, %80
  %86 = load ptr, ptr %7, align 8, !tbaa !60
  %87 = icmp ne ptr %86, null
  br i1 %87, label %88, label %116

88:                                               ; preds = %85
  %89 = load ptr, ptr %4, align 8, !tbaa !3
  %90 = load ptr, ptr %7, align 8, !tbaa !60
  %91 = getelementptr inbounds nuw %struct.Agobj_s, ptr %90, i32 0, i32 0
  %92 = load i32, ptr %91, align 8
  %93 = and i32 %92, 3
  %94 = icmp eq i32 %93, 2
  br i1 %94, label %95, label %97

95:                                               ; preds = %88
  %96 = load ptr, ptr %7, align 8, !tbaa !60
  br label %100

97:                                               ; preds = %88
  %98 = load ptr, ptr %7, align 8, !tbaa !60
  %99 = getelementptr inbounds %struct.Agedge_s, ptr %98, i64 -1
  br label %100

100:                                              ; preds = %97, %95
  %101 = phi ptr [ %96, %95 ], [ %99, %97 ]
  %102 = getelementptr inbounds nuw %struct.Agedge_s, ptr %101, i32 0, i32 3
  %103 = load ptr, ptr %102, align 8, !tbaa !108
  %104 = call i32 @agcontains(ptr noundef %89, ptr noundef %103)
  %105 = icmp ne i32 %104, 0
  br i1 %105, label %106, label %110

106:                                              ; preds = %100
  %107 = load ptr, ptr %4, align 8, !tbaa !3
  %108 = load ptr, ptr %7, align 8, !tbaa !60
  %109 = call ptr @agsubedge(ptr noundef %107, ptr noundef %108, i32 noundef 1)
  br label %110

110:                                              ; preds = %106, %100
  br label %111

111:                                              ; preds = %110
  %112 = load ptr, ptr %4, align 8, !tbaa !3
  %113 = call ptr @dot_root(ptr noundef %112)
  %114 = load ptr, ptr %7, align 8, !tbaa !60
  %115 = call ptr @agnxtout(ptr noundef %113, ptr noundef %114)
  store ptr %115, ptr %7, align 8, !tbaa !60
  br label %85, !llvm.loop !109

116:                                              ; preds = %85
  br label %117

117:                                              ; preds = %116
  %118 = load ptr, ptr %4, align 8, !tbaa !3
  %119 = load ptr, ptr %5, align 8, !tbaa !8
  %120 = call ptr @agnxtnode(ptr noundef %118, ptr noundef %119)
  store ptr %120, ptr %5, align 8, !tbaa !8
  br label %77, !llvm.loop !110

121:                                              ; preds = %77
  call void @llvm.lifetime.end.p0(i64 4, ptr %8) #13
  call void @llvm.lifetime.end.p0(i64 8, ptr %7) #13
  call void @llvm.lifetime.end.p0(i64 8, ptr %6) #13
  call void @llvm.lifetime.end.p0(i64 8, ptr %5) #13
  ret void
}